(dp0
S'OPT_CNN_A4_m_04rlf'
p1
(dp2
S'variance'
p3
(lp4
((I10
I10
I5
tp5
(lp6
cnumpy.core.multiarray
scalar
p7
(cnumpy
dtype
p8
(S'f8'
p9
I0
I1
tp10
Rp11
(I3
S'<'
p12
NNNI-1
I-1
I0
tp13
bS'\xc0+\xae\x93\xdc\xb0t?'
p14
tp15
Rp16
ag7
(g11
S'\x14.#\xec\xe2No?'
p17
tp18
Rp19
ag7
(g11
S'\xa1\xc5\x82\xae\xda\x8bi?'
p20
tp21
Rp22
atp23
asS'MAE'
p24
(lp25
((I10
I10
I5
tp26
(lp27
g7
(g11
S"\xc0\xd0P'CH\xe4?"
p28
tp29
Rp30
ag7
(g11
S'o\xb0\xeb\xeb\rO\xe4?'
p31
tp32
Rp33
ag7
(g11
S'\xec\x0b\x9dTe\x99\xe4?'
p34
tp35
Rp36
atp37
asS'estimated_variance'
p38
(lp39
((I10
I10
I5
tp40
(lp41
g7
(g11
S"\xc8\xfb'\xcc\xac\x07l?"
p42
tp43
Rp44
ag7
(g11
S'A\xb1\x9bZ\xa0\x8bd?'
p45
tp46
Rp47
ag7
(g11
S'V\x93\x8b\x11\x0eI]?'
p48
tp49
Rp50
atp51
asS'accuracy'
p52
(lp53
((I10
I10
I5
tp54
(lp55
g7
(g11
S'\xfe\xc4\xf5\xdb)\xd2\xc0?'
p56
tp57
Rp58
ag7
(g11
S'\\F\x8a\xc9\xfe\xb6\xc0?'
p59
tp60
Rp61
ag7
(g11
S'\xfc\xb0\x89MB\x1b\xbf?'
p62
tp63
Rp64
atp65
assS'OPT_CNN_A4_m_09x0r'
p66
(dp67
g3
(lp68
((I10
I10
I5
tp69
(lp70
g7
(g11
S'\xa0\x19==\xeetu?'
p71
tp72
Rp73
ag7
(g11
S'\xb0\xe6{fHQn?'
p74
tp75
Rp76
ag7
(g11
S'`\xa1/\xeac\x80i?'
p77
tp78
Rp79
atp80
asg24
(lp81
((I10
I10
I5
tp82
(lp83
g7
(g11
S"\x12\x85p'\xa3\xbc\xcd?"
p84
tp85
Rp86
ag7
(g11
S'R\x7f\xc5Qol\xcd?'
p87
tp88
Rp89
ag7
(g11
S'\xc1\xb2>Wp\x93\xcd?'
p90
tp91
Rp92
atp93
asg38
(lp94
((I10
I10
I5
tp95
(lp96
g7
(g11
S'\x11\xc7]\xa2\x84\xafl?'
p97
tp98
Rp99
ag7
(g11
S'\x00\xec7\xd1\x94:e?'
p100
tp101
Rp102
ag7
(g11
S'\x89\x99\x03-jW^?'
p103
tp104
Rp105
atp106
asg52
(lp107
((I10
I10
I5
tp108
(lp109
g7
(g11
S'\x81\xf4\x0f\x1b[\x9e\xd8?'
p110
tp111
Rp112
ag7
(g11
S'E\x85\xeb\x1f\x8a\xc5\xd8?'
p113
tp114
Rp115
ag7
(g11
S'6\x00\xf9dj\xb2\xd8?'
p116
tp117
Rp118
atp119
assS'OPT_CNN_A3_m_04rlf'
p120
(dp121
g3
(lp122
((I10
I10
I5
tp123
(lp124
g7
(g11
S'\xafU%p9,s?'
p125
tp126
Rp127
ag7
(g11
S'?E[\xd2\x88Bp?'
p128
tp129
Rp130
ag7
(g11
S'\x89\x85 \x10\x0e!o?'
p131
tp132
Rp133
atp134
asg24
(lp135
((I10
I10
I5
tp136
(lp137
g7
(g11
S'UaK{\x8e\xd9\xe3?'
p138
tp139
Rp140
ag7
(g11
S'\xd7;\x84\xfaS\xf8\xe3?'
p141
tp142
Rp143
ag7
(g11
S'\x8e@\xf0\xefq)\xe4?'
p144
tp145
Rp146
atp147
asg38
(lp148
((I10
I10
I5
tp149
(lp150
g7
(g11
S'\x15xF\x16\x80`q?'
p151
tp152
Rp153
ag7
(g11
S'\x91\x95\xc9d[\x11i?'
p154
tp155
Rp156
ag7
(g11
S'\xc7\x03\x89 \xe2\x1ae?'
p157
tp158
Rp159
atp160
asg52
(lp161
((I10
I10
I5
tp162
(lp163
g7
(g11
S'h\x82\x0b\x8c\xfc\x8c\xc2?'
p164
tp165
Rp166
ag7
(g11
S'\x83\x18(\x8f\xe6\x11\xc2?'
p167
tp168
Rp169
ag7
(g11
S'\xad\x05x\xb9nM\xc1?'
p170
tp171
Rp172
atp173
assS'OPT_CNN_A5_m_04rlf'
p174
(dp175
g3
(lp176
((I10
I10
I5
tp177
(lp178
g7
(g11
S'\xb0\x92\xf0f\xfd\xe8s?'
p179
tp180
Rp181
ag7
(g11
S'\xcd\xcf}\xc8d\xc9o?'
p182
tp183
Rp184
ag7
(g11
S'\x95\xf4y!\x97-j?'
p185
tp186
Rp187
atp188
asg24
(lp189
((I10
I10
I5
tp190
(lp191
g7
(g11
S'\xec\x1fh{p?\xe4?'
p192
tp193
Rp194
ag7
(g11
S'1D\xecRXM\xe4?'
p195
tp196
Rp197
ag7
(g11
S'\x15?\xef\xe36\x94\xe4?'
p198
tp199
Rp200
atp201
asg38
(lp202
((I10
I10
I5
tp203
(lp204
g7
(g11
S'\xcb\xd8\x19\xd7)$l?'
p205
tp206
Rp207
ag7
(g11
S'\xf7,GtK\xacd?'
p208
tp209
Rp210
ag7
(g11
S'\xb5\xf7,\xd4\xcb"]?'
p211
tp212
Rp213
atp214
asg52
(lp215
((I10
I10
I5
tp216
(lp217
g7
(g11
S'=\x88\x98\x8bt\xf5\xc0?'
p218
tp219
Rp220
ag7
(g11
S' \xf7\x87-\xd5\xbd\xc0?'
p221
tp222
Rp223
ag7
(g11
S'\n\x17\xf8\xd2\xb5D\xbf?'
p224
tp225
Rp226
atp227
assS'OPT_CNN__m_09x0r'
p228
(dp229
g3
(lp230
((I10
I10
I5
tp231
(lp232
g7
(g11
S'D\x97W\x0b\xb00p?'
p233
tp234
Rp235
ag7
(g11
S'\xad^V\x19\x89Bf?'
p236
tp237
Rp238
ag7
(g11
S'\xa1\x1c\n\xd6\xc6\xccb?'
p239
tp240
Rp241
atp242
asg24
(lp243
((I10
I10
I5
tp244
(lp245
g7
(g11
S'\xfcPQ\xfa \xd8\xcd?'
p246
tp247
Rp248
ag7
(g11
S']\xb4\xbc\xb3\xf6\xeb\xcd?'
p249
tp250
Rp251
ag7
(g11
S'\xd4\xcb\x89\xd5r\xfa\xcd?'
p252
tp253
Rp254
atp255
asg38
(lp256
((I10
I10
I5
tp257
(lp258
g7
(g11
S'\xef\xb1W\x86\x0c\xa7n?'
p259
tp260
Rp261
ag7
(g11
S'\xc76,\xd4}\xaef?'
p262
tp263
Rp264
ag7
(g11
S'\xf9\xf4\xb7V\xf16b?'
p265
tp266
Rp267
atp268
asg52
(lp269
((I10
I10
I5
tp270
(lp271
g7
(g11
S'\xbc\x14\x8eW\x9a\x90\xd8?'
p272
tp273
Rp274
ag7
(g11
S'-:\xe8q\xcc\x85\xd8?'
p275
tp276
Rp277
ag7
(g11
S'\x0e_\t^\x88~\xd8?'
p278
tp279
Rp280
atp281
assS'OPT_CNN_A2_m_04rlf'
p282
(dp283
g3
(lp284
((I10
I10
I5
tp285
(lp286
g7
(g11
S'h\xff\xadr\x1auv?'
p287
tp288
Rp289
ag7
(g11
S'I.\xa9\xd0x\x98t?'
p290
tp291
Rp292
ag7
(g11
S'Nk\xeb\xf9\xa1!r?'
p293
tp294
Rp295
atp296
asg24
(lp297
((I10
I10
I5
tp298
(lp299
g7
(g11
S'i\xc4wa\x94s\xe5?'
p300
tp301
Rp302
ag7
(g11
S'C\xb4\xe7\x91\xfc\x99\xe5?'
p303
tp304
Rp305
ag7
(g11
S'\x1f\xb0\xadr\x8e\xc0\xe5?'
p306
tp307
Rp308
atp309
asg38
(lp310
((I10
I10
I5
tp311
(lp312
g7
(g11
S'Ubkr\xe5gR?'
p313
tp314
Rp315
ag7
(g11
S'\x8b\x06)\xfeHiH?'
p316
tp317
Rp318
ag7
(g11
S'\xbd\x9f\xe6\xd8\xd01A?'
p319
tp320
Rp321
atp322
asg52
(lp323
((I10
I10
I5
tp324
(lp325
g7
(g11
S';\xec\xb3\xe6\xc9I\xb8?'
p326
tp327
Rp328
ag7
(g11
S'\x01m4c\x88\x16\xb7?'
p329
tp330
Rp331
ag7
(g11
S'\t\x8f\x04]\xf9\xe1\xb5?'
p332
tp333
Rp334
atp335
assS'OPT_CNN_A2_m_09x0r'
p336
(dp337
g3
(lp338
((I10
I10
I5
tp339
(lp340
g7
(g11
S'M\xbc\xaa"f\xd3|?'
p341
tp342
Rp343
ag7
(g11
S'vo`F12{?'
p344
tp345
Rp346
ag7
(g11
S'P0m\xef\xf84y?'
p347
tp348
Rp349
atp350
asg24
(lp351
((I10
I10
I5
tp352
(lp353
g7
(g11
S'\xf2-aA\xf9\xdf\xcc?'
p354
tp355
Rp356
ag7
(g11
S'\xe70\xbc\xee\xa1\x05\xcd?'
p357
tp358
Rp359
ag7
(g11
S'\xff\n\x7ff\x91\xa9\xcc?'
p360
tp361
Rp362
atp363
asg38
(lp364
((I10
I10
I5
tp365
(lp366
g7
(g11
S'QQ\xaa\xb5$\x18U?'
p367
tp368
Rp369
ag7
(g11
S'\x08(\xa7"\x9b\xe3K?'
p370
tp371
Rp372
ag7
(g11
S'\x00$\x14*\n\xf4D?'
p373
tp374
Rp375
atp376
asg52
(lp377
((I10
I10
I5
tp378
(lp379
g7
(g11
S'K\xce\xaf<J\r\xd9?'
p380
tp381
Rp382
ag7
(g11
S'U\xa0u\x00\xe2\xfa\xd8?'
p383
tp384
Rp385
ag7
(g11
S"\xde\x8dwO}'\xd9?"
p386
tp387
Rp388
atp389
assS'OPT_CNN__m_04rlf'
p390
(dp391
g3
(lp392
((I10
I10
I5
tp393
(lp394
g7
(g11
S'\x8f \xed\xa9\x18,q?'
p395
tp396
Rp397
ag7
(g11
S'W\xa04[Y\xe8g?'
p398
tp399
Rp400
ag7
(g11
S'R\xea\xf7\xed\x12\xa7c?'
p401
tp402
Rp403
atp404
asg24
(lp405
((I10
I10
I5
tp406
(lp407
g7
(g11
S'\xc1\x93=\x08\x1d\xad\xe3?'
p408
tp409
Rp410
ag7
(g11
S'\xf6\x01\x7fa{\x99\xe3?'
p411
tp412
Rp413
ag7
(g11
S'\xe0\xd4\xba$\x83\xad\xe3?'
p414
tp415
Rp416
atp417
asg38
(lp418
((I10
I10
I5
tp419
(lp420
g7
(g11
S'\xf3f\xf6Y\xb4\xc8p?'
p421
tp422
Rp423
ag7
(g11
S'\x07\x8e\x08\xd2p\xf5h?'
p424
tp425
Rp426
ag7
(g11
S'\xbb\xf4).c\xb8d?'
p427
tp428
Rp429
atp430
asg52
(lp431
((I10
I10
I5
tp432
(lp433
g7
(g11
S' \xb9BX\xc2>\xc3?'
p434
tp435
Rp436
ag7
(g11
S'\xde\xff<\xf3H\x8d\xc3?'
p437
tp438
Rp439
ag7
(g11
S'&\xb4M\xe6)=\xc3?'
p440
tp441
Rp442
atp443
assS'OPT_CNN_A5_m_09x0r'
p444
(dp445
g3
(lp446
((I10
I10
I5
tp447
(lp448
g7
(g11
S'@\xf0\xe6\x81\xd5\x18t?'
p449
tp450
Rp451
ag7
(g11
S'Ho\xf9\x199\xabm?'
p452
tp453
Rp454
ag7
(g11
S'\xab\xc7\x1e3Iwk?'
p455
tp456
Rp457
atp458
asg24
(lp459
((I10
I10
I5
tp460
(lp461
g7
(g11
S'\x9amg\\\xcc\x85\xcd?'
p462
tp463
Rp464
ag7
(g11
S'3\xe7\x81\x89|\xb2\xcd?'
p465
tp466
Rp467
ag7
(g11
S'\xf7\xe8\xedf\x9d`\xcd?'
p468
tp469
Rp470
atp471
asg38
(lp472
((I10
I10
I5
tp473
(lp474
g7
(g11
S'qs\xcb\x08g\xa9l?'
p475
tp476
Rp477
ag7
(g11
S"'\x87gi]`e?"
p478
tp479
Rp480
ag7
(g11
S'\xc3\x83\x97pz;^?'
p481
tp482
Rp483
atp484
asg52
(lp485
((I10
I10
I5
tp486
(lp487
g7
(g11
S'\xde\x8b\x9b9"\xba\xd8?'
p488
tp489
Rp490
ag7
(g11
S'_Q\r\x84\x83\xa2\xd8?'
p491
tp492
Rp493
ag7
(g11
S'kG\xd8\xe6\x90\xcb\xd8?'
p494
tp495
Rp496
atp497
assS'OPT_CNN_A3_m_09x0r'
p498
(dp499
g3
(lp500
((I10
I10
I5
tp501
(lp502
g7
(g11
S'\x88\xaf{\xe7d\x1as?'
p503
tp504
Rp505
ag7
(g11
S'\xd7c\xe9t%zn?'
p506
tp507
Rp508
ag7
(g11
S'\xe3Q?\xd6\xb6\xd7j?'
p509
tp510
Rp511
atp512
asg24
(lp513
((I10
I10
I5
tp514
(lp515
g7
(g11
S'\x89]T\xe3.\xbb\xcd?'
p516
tp517
Rp518
ag7
(g11
S'N\x95[a\xfb\xf2\xcd?'
p519
tp520
Rp521
ag7
(g11
S'\x0b0_.\xda\x99\xcd?'
p522
tp523
Rp524
atp525
asg38
(lp526
((I10
I10
I5
tp527
(lp528
g7
(g11
S'\x16B2\xe5\x8a\xcbq?'
p529
tp530
Rp531
ag7
(g11
S'x\xb0\xa8\x13\x9a\x0fk?'
p532
tp533
Rp534
ag7
(g11
S'\xac\xb2Q\xda\xa4te?'
p535
tp536
Rp537
atp538
asg52
(lp539
((I10
I10
I5
tp540
(lp541
g7
(g11
S'\x06\x85\xda\x88m\x9e\xd8?'
p542
tp543
Rp544
ag7
(g11
S'Kz \x18D\x82\xd8?'
p545
tp546
Rp547
ag7
(g11
S'\xf1\xac\x9e\xb1\xd4\xae\xd8?'
p548
tp549
Rp550
atp551
ass.